target datalayout = "e-m:e-p270:32:32-p271:32:32-p272:64:64-i64:64-i128:128-f80:128-n8:16:32:64-S128"
target triple = "x86_64-pc-linux-gnu"

%struct.Gia_Man_t_ = type { ptr, ptr, i32, i32, i32, i32, ptr, ptr, i32, i32, i32, ptr, ptr, %struct.Vec_Int_t_, %struct.Vec_Int_t_, i32, i32, i32, %struct.Vec_Int_t_, ptr, ptr, ptr, i32, i32, i32, i32, ptr, ptr, ptr, ptr, ptr, i32, i32, ptr, i32, ptr, ptr, ptr, ptr, ptr, ptr, ptr, ptr, ptr, ptr, ptr, ptr, ptr, ptr, ptr, ptr, ptr, ptr, %struct.Vec_Int_t_, %struct.Vec_Int_t_, ptr, ptr, ptr, ptr, ptr, ptr, ptr, ptr, ptr, ptr, ptr, ptr, ptr, ptr, ptr, ptr, ptr, ptr, ptr, ptr, ptr, i32, float, float, ptr, ptr, i32, ptr, ptr, ptr, ptr, ptr, ptr, ptr, ptr, ptr, ptr, ptr, ptr, ptr, ptr, ptr, i64, i64, ptr, ptr, i32, i32, i32, i32, i32, i32, i32, i32, i32, i32, i32, i32, ptr, ptr, ptr, ptr, ptr, ptr, ptr, ptr, i32, i32, i32, ptr, i32, i32, ptr, ptr, ptr, ptr, ptr, ptr, i32, i32, ptr, %struct.Vec_Int_t_, %struct.Vec_Int_t_, %struct.Vec_Int_t_, ptr, ptr, ptr, i32, i32, i32, i32, ptr, ptr, ptr, ptr, ptr }
%struct.Vec_Int_t_ = type { i32, i32, ptr }
%struct.Gia_Obj_t_ = type <{ i64, i32 }>
%struct.Gia_Rpr_t_ = type { i32 }

; Function Attrs: inlinehint nounwind uwtable
define internal i32 @Gia_ObjRepr(ptr noundef %0, i32 noundef %1) #1 {
  %3 = alloca ptr, align 8
  %4 = alloca i32, align 4
  store ptr %0, ptr %3, align 8, !tbaa !3
  store i32 %1, ptr %4, align 4, !tbaa !33
  %5 = load ptr, ptr %3, align 8, !tbaa !3
  %6 = getelementptr inbounds nuw %struct.Gia_Man_t_, ptr %5, i32 0, i32 27
  %7 = load ptr, ptr %6, align 8, !tbaa !53
  %8 = load i32, ptr %4, align 4, !tbaa !33
  %9 = sext i32 %8 to i64
  %10 = getelementptr inbounds %struct.Gia_Rpr_t_, ptr %7, i64 %9
  %11 = load i32, ptr %10, align 4
  %12 = and i32 %11, 268435455
  ret i32 %12
}

; Function Attrs: inlinehint nounwind uwtable
define internal void @Gia_ObjSetNext(ptr noundef %0, i32 noundef %1, i32 noundef %2) #1 {
  %4 = alloca ptr, align 8
  %5 = alloca i32, align 4
  %6 = alloca i32, align 4
  store ptr %0, ptr %4, align 8, !tbaa !3
  store i32 %1, ptr %5, align 4, !tbaa !33
  store i32 %2, ptr %6, align 4, !tbaa !33
  %7 = load i32, ptr %6, align 4, !tbaa !33
  %8 = load ptr, ptr %4, align 8, !tbaa !3
  %9 = getelementptr inbounds nuw %struct.Gia_Man_t_, ptr %8, i32 0, i32 28
  %10 = load ptr, ptr %9, align 8, !tbaa !56
  %11 = load i32, ptr %5, align 4, !tbaa !33
  %12 = sext i32 %11 to i64
  %13 = getelementptr inbounds i32, ptr %10, i64 %12
  store i32 %7, ptr %13, align 4, !tbaa !33
  ret void
}

; Function Attrs: inlinehint nounwind uwtable
define internal void @Gia_ObjSetRepr(ptr noundef %0, i32 noundef %1, i32 noundef %2) #1 {
  %4 = alloca ptr, align 8
  %5 = alloca i32, align 4
  %6 = alloca i32, align 4
  store ptr %0, ptr %4, align 8, !tbaa !3
  store i32 %1, ptr %5, align 4, !tbaa !33
  store i32 %2, ptr %6, align 4, !tbaa !33
  %7 = load i32, ptr %6, align 4, !tbaa !33
  %8 = load ptr, ptr %4, align 8, !tbaa !3
  %9 = getelementptr inbounds nuw %struct.Gia_Man_t_, ptr %8, i32 0, i32 27
  %10 = load ptr, ptr %9, align 8, !tbaa !53
  %11 = load i32, ptr %5, align 4, !tbaa !33
  %12 = sext i32 %11 to i64
  %13 = getelementptr inbounds %struct.Gia_Rpr_t_, ptr %10, i64 %12
  %14 = load i32, ptr %13, align 4
  %15 = and i32 %7, 268435455
  %16 = and i32 %14, -268435456
  %17 = or i32 %16, %15
  store i32 %17, ptr %13, align 4
  ret void
}

; Function Attrs: inlinehint nounwind uwtable
define internal i32 @Gia_ObjNext(ptr noundef %0, i32 noundef %1) #1 {
  %3 = alloca ptr, align 8
  %4 = alloca i32, align 4
  store ptr %0, ptr %3, align 8, !tbaa !3
  store i32 %1, ptr %4, align 4, !tbaa !33
  %5 = load ptr, ptr %3, align 8, !tbaa !3
  %6 = getelementptr inbounds nuw %struct.Gia_Man_t_, ptr %5, i32 0, i32 28
  %7 = load ptr, ptr %6, align 8, !tbaa !56
  %8 = load i32, ptr %4, align 4, !tbaa !33
  %9 = sext i32 %8 to i64
  %10 = getelementptr inbounds i32, ptr %7, i64 %9
  %11 = load i32, ptr %10, align 4, !tbaa !33
  ret i32 %11
}

; Function Attrs: inlinehint nounwind uwtable
define internal i32 @Gia_ObjIsHead(ptr noundef %0, i32 noundef %1) #1 {
  %3 = alloca ptr, align 8
  %4 = alloca i32, align 4
  store ptr %0, ptr %3, align 8, !tbaa !3
  store i32 %1, ptr %4, align 4, !tbaa !33
  %5 = load ptr, ptr %3, align 8, !tbaa !3
  %6 = load i32, ptr %4, align 4, !tbaa !33
  %7 = call i32 @Gia_ObjRepr(ptr noundef %5, i32 noundef %6)
  %8 = icmp eq i32 %7, 268435455
  br i1 %8, label %9, label %14

9:                                                ; preds = %2
  %10 = load ptr, ptr %3, align 8, !tbaa !3
  %11 = load i32, ptr %4, align 4, !tbaa !33
  %12 = call i32 @Gia_ObjNext(ptr noundef %10, i32 noundef %11)
  %13 = icmp sgt i32 %12, 0
  br label %14

14:                                               ; preds = %9, %2
  %15 = phi i1 [ false, %2 ], [ %13, %9 ]
  %16 = zext i1 %15 to i32
  ret i32 %16
}

; Function Attrs: inlinehint nounwind uwtable
define internal i32 @Gia_ManObjNum(ptr noundef %0) #1 {
  %2 = alloca ptr, align 8
  store ptr %0, ptr %2, align 8, !tbaa !3
  %3 = load ptr, ptr %2, align 8, !tbaa !3
  %4 = getelementptr inbounds nuw %struct.Gia_Man_t_, ptr %3, i32 0, i32 4
  %5 = load i32, ptr %4, align 8, !tbaa !37
  ret i32 %5
}

; Function Attrs: inlinehint nounwind uwtable
define internal i32 @Gia_ObjIsCo(ptr noundef %0) #1 {
  %2 = alloca ptr, align 8
  store ptr %0, ptr %2, align 8, !tbaa !38
  %3 = load ptr, ptr %2, align 8, !tbaa !38
  %4 = load i64, ptr %3, align 4
  %5 = lshr i64 %4, 31
  %6 = and i64 %5, 1
  %7 = trunc i64 %6 to i32
  %8 = icmp ne i32 %7, 0
  br i1 %8, label %9, label %15

9:                                                ; preds = %1
  %10 = load ptr, ptr %2, align 8, !tbaa !38
  %11 = load i64, ptr %10, align 4
  %12 = and i64 %11, 536870911
  %13 = trunc i64 %12 to i32
  %14 = icmp ne i32 %13, 536870911
  br label %15

15:                                               ; preds = %9, %1
  %16 = phi i1 [ false, %1 ], [ %14, %9 ]
  %17 = zext i1 %16 to i32
  ret i32 %17
}

; Function Attrs: inlinehint nounwind uwtable
define internal ptr @Gia_ObjFanin1(ptr noundef %0) #1 {
  %2 = alloca ptr, align 8
  store ptr %0, ptr %2, align 8, !tbaa !38
  %3 = load ptr, ptr %2, align 8, !tbaa !38
  %4 = load ptr, ptr %2, align 8, !tbaa !38
  %5 = load i64, ptr %4, align 4
  %6 = lshr i64 %5, 32
  %7 = and i64 %6, 536870911
  %8 = trunc i64 %7 to i32
  %9 = sext i32 %8 to i64
  %10 = sub i64 0, %9
  %11 = getelementptr inbounds %struct.Gia_Obj_t_, ptr %3, i64 %10
  ret ptr %11
}

; Function Attrs: inlinehint nounwind uwtable
define internal ptr @Gia_ObjFanin0(ptr noundef %0) #1 {
  %2 = alloca ptr, align 8
  store ptr %0, ptr %2, align 8, !tbaa !38
  %3 = load ptr, ptr %2, align 8, !tbaa !38
  %4 = load ptr, ptr %2, align 8, !tbaa !38
  %5 = load i64, ptr %4, align 4
  %6 = and i64 %5, 536870911
  %7 = trunc i64 %6 to i32
  %8 = sext i32 %7 to i64
  %9 = sub i64 0, %8
  %10 = getelementptr inbounds %struct.Gia_Obj_t_, ptr %3, i64 %9
  ret ptr %10
}

; Function Attrs: inlinehint nounwind uwtable
define internal i32 @Gia_ObjIsAnd(ptr noundef %0) #1 {
  %2 = alloca ptr, align 8
  store ptr %0, ptr %2, align 8, !tbaa !38
  %3 = load ptr, ptr %2, align 8, !tbaa !38
  %4 = load i64, ptr %3, align 4
  %5 = lshr i64 %4, 31
  %6 = and i64 %5, 1
  %7 = trunc i64 %6 to i32
  %8 = icmp ne i32 %7, 0
  br i1 %8, label %15, label %9

9:                                                ; preds = %1
  %10 = load ptr, ptr %2, align 8, !tbaa !38
  %11 = load i64, ptr %10, align 4
  %12 = and i64 %11, 536870911
  %13 = trunc i64 %12 to i32
  %14 = icmp ne i32 %13, 536870911
  br label %15

15:                                               ; preds = %9, %1
  %16 = phi i1 [ false, %1 ], [ %14, %9 ]
  %17 = zext i1 %16 to i32
  ret i32 %17
}

; Function Attrs: inlinehint nounwind uwtable
define internal ptr @Gia_ManObj(ptr noundef %0, i32 noundef %1) #1 {
  %3 = alloca ptr, align 8
  %4 = alloca i32, align 4
  store ptr %0, ptr %3, align 8, !tbaa !3
  store i32 %1, ptr %4, align 4, !tbaa !33
  %5 = load ptr, ptr %3, align 8, !tbaa !3
  %6 = getelementptr inbounds nuw %struct.Gia_Man_t_, ptr %5, i32 0, i32 6
  %7 = load ptr, ptr %6, align 8, !tbaa !43
  %8 = load i32, ptr %4, align 4, !tbaa !33
  %9 = sext i32 %8 to i64
  %10 = getelementptr inbounds %struct.Gia_Obj_t_, ptr %7, i64 %9
  ret ptr %10
}

; Function Attrs: nounwind uwtable
define void @Gia_ManRemoveBadChoices(ptr noundef %0) #0 {
  %2 = alloca ptr, align 8
  %3 = alloca ptr, align 8
  %4 = alloca i32, align 4
  %5 = alloca i32, align 4
  %6 = alloca i32, align 4
  %7 = alloca i32, align 4
  store ptr %0, ptr %2, align 8, !tbaa !3
  call void @llvm.lifetime.start.p0(i64 8, ptr %3) #12
  call void @llvm.lifetime.start.p0(i64 4, ptr %4) #12
  call void @llvm.lifetime.start.p0(i64 4, ptr %5) #12
  call void @llvm.lifetime.start.p0(i64 4, ptr %6) #12
  call void @llvm.lifetime.start.p0(i64 4, ptr %7) #12
  store i32 0, ptr %7, align 4, !tbaa !33
  store i32 0, ptr %4, align 4, !tbaa !33
  br label %8

8:                                                ; preds = %52, %1
  %9 = load i32, ptr %4, align 4, !tbaa !33
  %10 = load ptr, ptr %2, align 8, !tbaa !3
  %11 = getelementptr inbounds nuw %struct.Gia_Man_t_, ptr %10, i32 0, i32 4
  %12 = load i32, ptr %11, align 8, !tbaa !37
  %13 = icmp slt i32 %9, %12
  br i1 %13, label %14, label %19

14:                                               ; preds = %8
  %15 = load ptr, ptr %2, align 8, !tbaa !3
  %16 = load i32, ptr %4, align 4, !tbaa !33
  %17 = call ptr @Gia_ManObj(ptr noundef %15, i32 noundef %16)
  store ptr %17, ptr %3, align 8, !tbaa !38
  %18 = icmp ne ptr %17, null
  br label %19

19:                                               ; preds = %14, %8
  %20 = phi i1 [ false, %8 ], [ %18, %14 ]
  br i1 %20, label %21, label %55

21:                                               ; preds = %19
  %22 = load ptr, ptr %3, align 8, !tbaa !38
  %23 = load i64, ptr %22, align 4
  %24 = and i64 %23, -1073741825
  %25 = or i64 %24, 0
  store i64 %25, ptr %22, align 4
  %26 = load ptr, ptr %3, align 8, !tbaa !38
  %27 = call i32 @Gia_ObjIsAnd(ptr noundef %26)
  %28 = icmp ne i32 %27, 0
  br i1 %28, label %29, label %40

29:                                               ; preds = %21
  %30 = load ptr, ptr %3, align 8, !tbaa !38
  %31 = call ptr @Gia_ObjFanin0(ptr noundef %30)
  %32 = load i64, ptr %31, align 4
  %33 = and i64 %32, -1073741825
  %34 = or i64 %33, 1073741824
  store i64 %34, ptr %31, align 4
  %35 = load ptr, ptr %3, align 8, !tbaa !38
  %36 = call ptr @Gia_ObjFanin1(ptr noundef %35)
  %37 = load i64, ptr %36, align 4
  %38 = and i64 %37, -1073741825
  %39 = or i64 %38, 1073741824
  store i64 %39, ptr %36, align 4
  br label %51

40:                                               ; preds = %21
  %41 = load ptr, ptr %3, align 8, !tbaa !38
  %42 = call i32 @Gia_ObjIsCo(ptr noundef %41)
  %43 = icmp ne i32 %42, 0
  br i1 %43, label %44, label %50

44:                                               ; preds = %40
  %45 = load ptr, ptr %3, align 8, !tbaa !38
  %46 = call ptr @Gia_ObjFanin0(ptr noundef %45)
  %47 = load i64, ptr %46, align 4
  %48 = and i64 %47, -1073741825
  %49 = or i64 %48, 1073741824
  store i64 %49, ptr %46, align 4
  br label %50

50:                                               ; preds = %44, %40
  br label %51

51:                                               ; preds = %50, %29
  br label %52

52:                                               ; preds = %51
  %53 = load i32, ptr %4, align 4, !tbaa !33
  %54 = add nsw i32 %53, 1
  store i32 %54, ptr %4, align 4, !tbaa !33
  br label %8, !llvm.loop !171

55:                                               ; preds = %19
  store i32 1, ptr %4, align 4, !tbaa !33
  br label %56

56:                                               ; preds = %104, %55
  %57 = load i32, ptr %4, align 4, !tbaa !33
  %58 = load ptr, ptr %2, align 8, !tbaa !3
  %59 = call i32 @Gia_ManObjNum(ptr noundef %58)
  %60 = icmp slt i32 %57, %59
  br i1 %60, label %61, label %107

61:                                               ; preds = %56
  %62 = load ptr, ptr %2, align 8, !tbaa !3
  %63 = load i32, ptr %4, align 4, !tbaa !33
  %64 = call i32 @Gia_ObjIsHead(ptr noundef %62, i32 noundef %63)
  %65 = icmp ne i32 %64, 0
  br i1 %65, label %67, label %66

66:                                               ; preds = %61
  br label %103

67:                                               ; preds = %61
  %68 = load i32, ptr %4, align 4, !tbaa !33
  store i32 %68, ptr %6, align 4, !tbaa !33
  %69 = load ptr, ptr %2, align 8, !tbaa !3
  %70 = load i32, ptr %4, align 4, !tbaa !33
  %71 = call i32 @Gia_ObjNext(ptr noundef %69, i32 noundef %70)
  store i32 %71, ptr %5, align 4, !tbaa !33
  br label %72

72:                                               ; preds = %98, %67
  %73 = load i32, ptr %5, align 4, !tbaa !33
  %74 = icmp ne i32 %73, 0
  br i1 %74, label %75, label %102

75:                                               ; preds = %72
  %76 = load ptr, ptr %2, align 8, !tbaa !3
  %77 = load i32, ptr %5, align 4, !tbaa !33
  %78 = call ptr @Gia_ManObj(ptr noundef %76, i32 noundef %77)
  %79 = load i64, ptr %78, align 4
  %80 = lshr i64 %79, 30
  %81 = and i64 %80, 1
  %82 = trunc i64 %81 to i32
  %83 = icmp ne i32 %82, 0
  br i1 %83, label %86, label %84

84:                                               ; preds = %75
  %85 = load i32, ptr %5, align 4, !tbaa !33
  store i32 %85, ptr %6, align 4, !tbaa !33
  br label %98

86:                                               ; preds = %75
  %87 = load ptr, ptr %2, align 8, !tbaa !3
  %88 = load i32, ptr %5, align 4, !tbaa !33
  call void @Gia_ObjSetRepr(ptr noundef %87, i32 noundef %88, i32 noundef 268435455)
  %89 = load ptr, ptr %2, align 8, !tbaa !3
  %90 = load i32, ptr %6, align 4, !tbaa !33
  %91 = load ptr, ptr %2, align 8, !tbaa !3
  %92 = load i32, ptr %5, align 4, !tbaa !33
  %93 = call i32 @Gia_ObjNext(ptr noundef %91, i32 noundef %92)
  call void @Gia_ObjSetNext(ptr noundef %89, i32 noundef %90, i32 noundef %93)
  %94 = load ptr, ptr %2, align 8, !tbaa !3
  %95 = load i32, ptr %5, align 4, !tbaa !33
  call void @Gia_ObjSetNext(ptr noundef %94, i32 noundef %95, i32 noundef 0)
  %96 = load i32, ptr %7, align 4, !tbaa !33
  %97 = add nsw i32 %96, 1
  store i32 %97, ptr %7, align 4, !tbaa !33
  br label %98

98:                                               ; preds = %86, %84
  %99 = load ptr, ptr %2, align 8, !tbaa !3
  %100 = load i32, ptr %6, align 4, !tbaa !33
  %101 = call i32 @Gia_ObjNext(ptr noundef %99, i32 noundef %100)
  store i32 %101, ptr %5, align 4, !tbaa !33
  br label %72, !llvm.loop !172

102:                                              ; preds = %72
  br label %103

103:                                              ; preds = %102, %66
  br label %104

104:                                              ; preds = %103
  %105 = load i32, ptr %4, align 4, !tbaa !33
  %106 = add nsw i32 %105, 1
  store i32 %106, ptr %4, align 4, !tbaa !33
  br label %56, !llvm.loop !173

107:                                              ; preds = %56
  %108 = load ptr, ptr %2, align 8, !tbaa !3
  call void @Gia_ManCleanMark0(ptr noundef %108)
  call void @llvm.lifetime.end.p0(i64 4, ptr %7) #12
  call void @llvm.lifetime.end.p0(i64 4, ptr %6) #12
  call void @llvm.lifetime.end.p0(i64 4, ptr %5) #12
  call void @llvm.lifetime.end.p0(i64 4, ptr %4) #12
  call void @llvm.lifetime.end.p0(i64 8, ptr %3) #12
  ret void
}