; Function Attrs: nounwind uwtable
define void @Gia_ManRemoveBadChoices(ptr noundef %0) local_unnamed_addr #0 {
  %2 = getelementptr i8, ptr %0, i64 32
  %3 = getelementptr inbounds nuw i8, ptr %0, i64 24
  %4 = load i32, ptr %3, align 8, !tbaa !12
  %5 = icmp sgt i32 %4, 0
  br i1 %5, label %.lr.ph.preheader, label %._crit_edge

.lr.ph.preheader:                                 ; preds = %1
  %.val4686 = load ptr, ptr %2, align 8, !tbaa !36
  %.not87 = icmp eq ptr %.val4686, null
  br i1 %.not87, label %.critedge, label %.lr.ph89

.lr.ph:                                           ; preds = %26
  %.val46 = load ptr, ptr %2, align 8, !tbaa !36
  %6 = getelementptr inbounds nuw %struct.Gia_Obj_t_, ptr %.val46, i64 %indvars.iv.next
  %.not = icmp eq ptr %.val46, null
  br i1 %.not, label %.critedge, label %.lr.ph89, !llvm.loop !158

.lr.ph89:                                         ; preds = %.lr.ph.preheader, %.lr.ph
  %7 = phi ptr [ %6, %.lr.ph ], [ %.val4686, %.lr.ph.preheader ]
  %indvars.iv88 = phi i64 [ %indvars.iv.next, %.lr.ph ], [ 0, %.lr.ph.preheader ]
  %8 = load i64, ptr %7, align 4
  %9 = and i64 %8, -1073741825
  store i64 %9, ptr %7, align 4
  %10 = and i64 %8, 2147483648
  %.not.i = icmp eq i64 %10, 0
  %11 = and i64 %8, 536870911
  %12 = icmp ne i64 %11, 536870911
  %narrow.i = and i1 %.not.i, %12
  br i1 %narrow.i, label %13, label %21

13:                                               ; preds = %.lr.ph89
  %14 = sub nsw i64 0, %11
  %15 = getelementptr inbounds %struct.Gia_Obj_t_, ptr %7, i64 %14
  %16 = load i64, ptr %15, align 4
  %17 = or i64 %16, 1073741824
  store i64 %17, ptr %15, align 4
  %18 = load i64, ptr %7, align 4
  %19 = lshr i64 %18, 32
  %20 = and i64 %19, 536870911
  br label %.sink.split

21:                                               ; preds = %.lr.ph89
  %.not.i55 = icmp ne i64 %10, 0
  %narrow.i56 = and i1 %.not.i55, %12
  br i1 %narrow.i56, label %.sink.split, label %26

.sink.split:                                      ; preds = %21, %13
  %.sink = phi i64 [ %20, %13 ], [ %11, %21 ]
  %22 = sub nsw i64 0, %.sink
  %23 = getelementptr inbounds %struct.Gia_Obj_t_, ptr %7, i64 %22
  %24 = load i64, ptr %23, align 4
  %25 = or i64 %24, 1073741824
  store i64 %25, ptr %23, align 4
  br label %26

26:                                               ; preds = %.sink.split, %21
  %indvars.iv.next = add nuw nsw i64 %indvars.iv88, 1
  %27 = load i32, ptr %3, align 8, !tbaa !12
  %28 = sext i32 %27 to i64
  %29 = icmp slt i64 %indvars.iv.next, %28
  br i1 %29, label %.lr.ph, label %.critedge, !llvm.loop !158

.critedge:                                        ; preds = %26, %.lr.ph, %.lr.ph.preheader
  %.val66 = phi i32 [ %4, %.lr.ph.preheader ], [ %27, %.lr.ph ], [ %27, %26 ]
  %30 = icmp sgt i32 %.val66, 1
  br i1 %30, label %.lr.ph70, label %._crit_edge

.lr.ph70:                                         ; preds = %.critedge
  %31 = getelementptr i8, ptr %0, i64 192
  %32 = getelementptr i8, ptr %0, i64 200
  br label %33

33:                                               ; preds = %.lr.ph70, %Gia_ObjIsHead.exit.thread
  %.val80 = phi i32 [ %.val66, %.lr.ph70 ], [ %.val, %Gia_ObjIsHead.exit.thread ]
  %indvars.iv72 = phi i64 [ 1, %.lr.ph70 ], [ %indvars.iv.next73, %Gia_ObjIsHead.exit.thread ]
  %.val.i = load ptr, ptr %31, align 8, !tbaa !49
  %34 = getelementptr inbounds nuw %struct.Gia_Rpr_t_, ptr %.val.i, i64 %indvars.iv72
  %35 = load i32, ptr %34, align 4
  %36 = and i32 %35, 268435455
  %37 = icmp eq i32 %36, 268435455
  br i1 %37, label %Gia_ObjIsHead.exit, label %Gia_ObjIsHead.exit.thread

Gia_ObjIsHead.exit:                               ; preds = %33
  %.val3.i = load ptr, ptr %32, align 8, !tbaa !54
  %38 = getelementptr inbounds nuw i32, ptr %.val3.i, i64 %indvars.iv72
  %39 = load i32, ptr %38, align 4, !tbaa !32
  %40 = icmp slt i32 %39, 1
  br i1 %40, label %Gia_ObjIsHead.exit.thread, label %.lr.ph65.preheader

.lr.ph65.preheader:                               ; preds = %Gia_ObjIsHead.exit
  %41 = trunc nuw nsw i64 %indvars.iv72 to i32
  br label %.lr.ph65

.lr.ph65:                                         ; preds = %.lr.ph65.preheader, %54
  %.val4978 = phi ptr [ %.val49, %54 ], [ %.val3.i, %.lr.ph65.preheader ]
  %.03664 = phi i32 [ %.036, %54 ], [ %39, %.lr.ph65.preheader ]
  %.03462 = phi i32 [ %.135, %54 ], [ %41, %.lr.ph65.preheader ]
  %.val45 = load ptr, ptr %2, align 8, !tbaa !36
  %42 = sext i32 %.03664 to i64
  %43 = getelementptr inbounds %struct.Gia_Obj_t_, ptr %.val45, i64 %42
  %44 = load i64, ptr %43, align 4
  %45 = and i64 %44, 1073741824
  %.not42 = icmp eq i64 %45, 0
  br i1 %.not42, label %54, label %46

46:                                               ; preds = %.lr.ph65
  %.val48 = load ptr, ptr %31, align 8, !tbaa !49
  %47 = getelementptr inbounds %struct.Gia_Rpr_t_, ptr %.val48, i64 %42
  %48 = load i32, ptr %47, align 4
  %49 = or i32 %48, 268435455
  store i32 %49, ptr %47, align 4
  %.val50 = load ptr, ptr %32, align 8, !tbaa !54
  %50 = getelementptr inbounds i32, ptr %.val50, i64 %42
  %51 = load i32, ptr %50, align 4, !tbaa !32
  %52 = sext i32 %.03462 to i64
  %53 = getelementptr inbounds i32, ptr %.val50, i64 %52
  store i32 %51, ptr %53, align 4, !tbaa !32
  store i32 0, ptr %50, align 4, !tbaa !32
  br label %54

54:                                               ; preds = %.lr.ph65, %46
  %.pre-phi = phi i64 [ %42, %.lr.ph65 ], [ %52, %46 ]
  %.val49 = phi ptr [ %.val4978, %.lr.ph65 ], [ %.val50, %46 ]
  %.135 = phi i32 [ %.03664, %.lr.ph65 ], [ %.03462, %46 ]
  %55 = getelementptr inbounds i32, ptr %.val49, i64 %.pre-phi
  %.036 = load i32, ptr %55, align 4, !tbaa !32
  %.not41 = icmp eq i32 %.036, 0
  br i1 %.not41, label %Gia_ObjIsHead.exit.thread.loopexit, label %.lr.ph65, !llvm.loop !159

Gia_ObjIsHead.exit.thread.loopexit:               ; preds = %54
  %.val.pre = load i32, ptr %3, align 8, !tbaa !12
  br label %Gia_ObjIsHead.exit.thread

Gia_ObjIsHead.exit.thread:                        ; preds = %Gia_ObjIsHead.exit.thread.loopexit, %33, %Gia_ObjIsHead.exit
  %.val = phi i32 [ %.val80, %Gia_ObjIsHead.exit ], [ %.val80, %33 ], [ %.val.pre, %Gia_ObjIsHead.exit.thread.loopexit ]
  %indvars.iv.next73 = add nuw nsw i64 %indvars.iv72, 1
  %56 = sext i32 %.val to i64
  %57 = icmp slt i64 %indvars.iv.next73, %56
  br i1 %57, label %33, label %._crit_edge, !llvm.loop !160

._crit_edge:                                      ; preds = %Gia_ObjIsHead.exit.thread, %1, %.critedge
  tail call void @Gia_ManCleanMark0(ptr noundef nonnull %0) #31
  ret void
}